target datalayout = "e-m:e-p270:32:32-p271:32:32-p272:64:64-i64:64-i128:128-f80:128-n8:16:32:64-S128"
target triple = "x86_64-pc-linux-gnu"

%struct.Hop_Man_t_ = type { ptr, ptr, ptr, ptr, %struct.Hop_Obj_t_, [6 x i32], i32, i32, ptr, i32, ptr, i32, i32, i32, ptr, ptr, ptr, i64, i64 }
%struct.Hop_Obj_t_ = type { %union.anon, %union.anon.0, ptr, ptr, i32, i32 }
%union.anon = type { ptr }
%union.anon.0 = type { ptr }
%struct.Vec_Ptr_t_ = type { i32, i32, ptr }

@.str.24 = private unnamed_addr constant [6 x i8] c"PIs: \00", align 1
@.str.25 = private unnamed_addr constant [4 x i8] c" %p\00", align 1
@.str.26 = private unnamed_addr constant [2 x i8] c"\0A\00", align 1

; Function Attrs: inlinehint nounwind uwtable
define internal void @Vec_PtrFree(ptr noundef %0) #2 {
  %2 = alloca ptr, align 8
  store ptr %0, ptr %2, align 8, !tbaa !28
  %3 = load ptr, ptr %2, align 8, !tbaa !28
  %4 = getelementptr inbounds nuw %struct.Vec_Ptr_t_, ptr %3, i32 0, i32 2
  %5 = load ptr, ptr %4, align 8, !tbaa !31
  %6 = icmp ne ptr %5, null
  br i1 %6, label %7, label %13

7:                                                ; preds = %1
  %8 = load ptr, ptr %2, align 8, !tbaa !28
  %9 = getelementptr inbounds nuw %struct.Vec_Ptr_t_, ptr %8, i32 0, i32 2
  %10 = load ptr, ptr %9, align 8, !tbaa !31
  call void @free(ptr noundef %10) #7
  %11 = load ptr, ptr %2, align 8, !tbaa !28
  %12 = getelementptr inbounds nuw %struct.Vec_Ptr_t_, ptr %11, i32 0, i32 2
  store ptr null, ptr %12, align 8, !tbaa !31
  br label %14

13:                                               ; preds = %1
  br label %14

14:                                               ; preds = %13, %7
  %15 = load ptr, ptr %2, align 8, !tbaa !28
  %16 = icmp ne ptr %15, null
  br i1 %16, label %17, label %19

17:                                               ; preds = %14
  %18 = load ptr, ptr %2, align 8, !tbaa !28
  call void @free(ptr noundef %18) #7
  store ptr null, ptr %2, align 8, !tbaa !28
  br label %20

19:                                               ; preds = %14
  br label %20

20:                                               ; preds = %19, %17
  ret void
}

; Function Attrs: inlinehint nounwind uwtable
define internal ptr @Vec_PtrEntry(ptr noundef %0, i32 noundef %1) #2 {
  %3 = alloca ptr, align 8
  %4 = alloca i32, align 4
  store ptr %0, ptr %3, align 8, !tbaa !28
  store i32 %1, ptr %4, align 4, !tbaa !17
  %5 = load ptr, ptr %3, align 8, !tbaa !28
  %6 = getelementptr inbounds nuw %struct.Vec_Ptr_t_, ptr %5, i32 0, i32 2
  %7 = load ptr, ptr %6, align 8, !tbaa !31
  %8 = load i32, ptr %4, align 4, !tbaa !17
  %9 = sext i32 %8 to i64
  %10 = getelementptr inbounds ptr, ptr %7, i64 %9
  %11 = load ptr, ptr %10, align 8, !tbaa !32
  ret ptr %11
}

; Function Attrs: inlinehint nounwind uwtable
define internal i32 @Vec_PtrSize(ptr noundef %0) #2 {
  %2 = alloca ptr, align 8
  store ptr %0, ptr %2, align 8, !tbaa !28
  %3 = load ptr, ptr %2, align 8, !tbaa !28
  %4 = getelementptr inbounds nuw %struct.Vec_Ptr_t_, ptr %3, i32 0, i32 1
  %5 = load i32, ptr %4, align 4, !tbaa !29
  ret i32 %5
}

; Function Attrs: nounwind uwtable
define void @Hop_ManPrintVerbose(ptr noundef %0, i32 noundef %1) #0 {
  %3 = alloca ptr, align 8
  %4 = alloca i32, align 4
  %5 = alloca ptr, align 8
  %6 = alloca ptr, align 8
  %7 = alloca i32, align 4
  store ptr %0, ptr %3, align 8, !tbaa !3
  store i32 %1, ptr %4, align 4, !tbaa !17
  call void @llvm.lifetime.start.p0(i64 8, ptr %5) #7
  call void @llvm.lifetime.start.p0(i64 8, ptr %6) #7
  call void @llvm.lifetime.start.p0(i64 4, ptr %7) #7
  %8 = call i32 (ptr, ...) @printf(ptr noundef @.str.24)
  store i32 0, ptr %7, align 4, !tbaa !17
  br label %9

9:                                                ; preds = %27, %2
  %10 = load i32, ptr %7, align 4, !tbaa !17
  %11 = load ptr, ptr %3, align 8, !tbaa !3
  %12 = getelementptr inbounds nuw %struct.Hop_Man_t_, ptr %11, i32 0, i32 0
  %13 = load ptr, ptr %12, align 8, !tbaa !18
  %14 = call i32 @Vec_PtrSize(ptr noundef %13)
  %15 = icmp slt i32 %10, %14
  br i1 %15, label %16, label %22

16:                                               ; preds = %9
  %17 = load ptr, ptr %3, align 8, !tbaa !3
  %18 = getelementptr inbounds nuw %struct.Hop_Man_t_, ptr %17, i32 0, i32 0
  %19 = load ptr, ptr %18, align 8, !tbaa !18
  %20 = load i32, ptr %7, align 4, !tbaa !17
  %21 = call ptr @Vec_PtrEntry(ptr noundef %19, i32 noundef %20)
  store ptr %21, ptr %6, align 8, !tbaa !19
  br label %22

22:                                               ; preds = %16, %9
  %23 = phi i1 [ false, %9 ], [ true, %16 ]
  br i1 %23, label %24, label %30

24:                                               ; preds = %22
  %25 = load ptr, ptr %6, align 8, !tbaa !19
  %26 = call i32 (ptr, ...) @printf(ptr noundef @.str.25, ptr noundef %25)
  br label %27

27:                                               ; preds = %24
  %28 = load i32, ptr %7, align 4, !tbaa !17
  %29 = add nsw i32 %28, 1
  store i32 %29, ptr %7, align 4, !tbaa !17
  br label %9, !llvm.loop !48

30:                                               ; preds = %22
  %31 = call i32 (ptr, ...) @printf(ptr noundef @.str.26)
  %32 = load ptr, ptr %3, align 8, !tbaa !3
  %33 = call ptr @Hop_ManDfs(ptr noundef %32)
  store ptr %33, ptr %5, align 8, !tbaa !28
  store i32 0, ptr %7, align 4, !tbaa !17
  br label %34

34:                                               ; preds = %49, %30
  %35 = load i32, ptr %7, align 4, !tbaa !17
  %36 = load ptr, ptr %5, align 8, !tbaa !28
  %37 = call i32 @Vec_PtrSize(ptr noundef %36)
  %38 = icmp slt i32 %35, %37
  br i1 %38, label %39, label %43

39:                                               ; preds = %34
  %40 = load ptr, ptr %5, align 8, !tbaa !28
  %41 = load i32, ptr %7, align 4, !tbaa !17
  %42 = call ptr @Vec_PtrEntry(ptr noundef %40, i32 noundef %41)
  store ptr %42, ptr %6, align 8, !tbaa !19
  br label %43

43:                                               ; preds = %39, %34
  %44 = phi i1 [ false, %34 ], [ true, %39 ]
  br i1 %44, label %45, label %52

45:                                               ; preds = %43
  %46 = load ptr, ptr %6, align 8, !tbaa !19
  %47 = load i32, ptr %4, align 4, !tbaa !17
  call void @Hop_ObjPrintVerbose(ptr noundef %46, i32 noundef %47)
  %48 = call i32 (ptr, ...) @printf(ptr noundef @.str.26)
  br label %49

49:                                               ; preds = %45
  %50 = load i32, ptr %7, align 4, !tbaa !17
  %51 = add nsw i32 %50, 1
  store i32 %51, ptr %7, align 4, !tbaa !17
  br label %34, !llvm.loop !49

52:                                               ; preds = %43
  %53 = call i32 (ptr, ...) @printf(ptr noundef @.str.26)
  %54 = load ptr, ptr %5, align 8, !tbaa !28
  call void @Vec_PtrFree(ptr noundef %54)
  call void @llvm.lifetime.end.p0(i64 4, ptr %7) #7
  call void @llvm.lifetime.end.p0(i64 8, ptr %6) #7
  call void @llvm.lifetime.end.p0(i64 8, ptr %5) #7
  ret void
}