; Function Attrs: nounwind uwtable
define void @Hop_ManPrintVerbose(ptr noundef %0, i32 noundef %1) local_unnamed_addr #3 {
  %3 = tail call i32 (ptr, ...) @printf(ptr noundef nonnull dereferenceable(1) @.str.24)
  %4 = load ptr, ptr %0, align 8, !tbaa !16
  %5 = getelementptr i8, ptr %4, i64 4
  %.val1821 = load i32, ptr %5, align 4, !tbaa !17
  %6 = icmp sgt i32 %.val1821, 0
  br i1 %6, label %.lr.ph, label %.critedge

.lr.ph:                                           ; preds = %2, %.lr.ph
  %indvars.iv = phi i64 [ %indvars.iv.next, %.lr.ph ], [ 0, %2 ]
  %7 = phi ptr [ %12, %.lr.ph ], [ %4, %2 ]
  %8 = getelementptr i8, ptr %7, i64 8
  %.val20 = load ptr, ptr %8, align 8, !tbaa !20
  %9 = getelementptr inbounds nuw ptr, ptr %.val20, i64 %indvars.iv
  %10 = load ptr, ptr %9, align 8, !tbaa !21
  %11 = tail call i32 (ptr, ...) @printf(ptr noundef nonnull dereferenceable(1) @.str.25, ptr noundef %10)
  %indvars.iv.next = add nuw nsw i64 %indvars.iv, 1
  %12 = load ptr, ptr %0, align 8, !tbaa !16
  %13 = getelementptr i8, ptr %12, i64 4
  %.val18 = load i32, ptr %13, align 4, !tbaa !17
  %14 = sext i32 %.val18 to i64
  %15 = icmp slt i64 %indvars.iv.next, %14
  br i1 %15, label %.lr.ph, label %.critedge, !llvm.loop !40

.critedge:                                        ; preds = %.lr.ph, %2
  %putchar = tail call i32 @putchar(i32 10)
  %16 = tail call ptr @Hop_ManDfs(ptr noundef nonnull %0) #16
  %17 = getelementptr i8, ptr %16, i64 4
  %.val23 = load i32, ptr %17, align 4, !tbaa !17
  %18 = icmp sgt i32 %.val23, 0
  br i1 %18, label %.lr.ph25, label %.critedge2

.lr.ph25:                                         ; preds = %.critedge
  %19 = getelementptr i8, ptr %16, i64 8
  br label %20

20:                                               ; preds = %.lr.ph25, %20
  %indvars.iv27 = phi i64 [ 0, %.lr.ph25 ], [ %indvars.iv.next28, %20 ]
  %.val19 = load ptr, ptr %19, align 8, !tbaa !20
  %21 = getelementptr inbounds nuw ptr, ptr %.val19, i64 %indvars.iv27
  %22 = load ptr, ptr %21, align 8, !tbaa !21
  tail call void @Hop_ObjPrintVerbose(ptr noundef %22, i32 poison)
  %putchar17 = tail call i32 @putchar(i32 10)
  %indvars.iv.next28 = add nuw nsw i64 %indvars.iv27, 1
  %.val = load i32, ptr %17, align 4, !tbaa !17
  %23 = sext i32 %.val to i64
  %24 = icmp slt i64 %indvars.iv.next28, %23
  br i1 %24, label %20, label %.critedge2, !llvm.loop !41

.critedge2:                                       ; preds = %20, %.critedge
  %putchar16 = tail call i32 @putchar(i32 10)
  %25 = getelementptr inbounds nuw i8, ptr %16, i64 8
  %26 = load ptr, ptr %25, align 8, !tbaa !20
  %.not.i = icmp eq ptr %26, null
  br i1 %.not.i, label %Vec_PtrFree.exit, label %27

27:                                               ; preds = %.critedge2
  tail call void @free(ptr noundef nonnull %26) #16
  br label %Vec_PtrFree.exit

Vec_PtrFree.exit:                                 ; preds = %.critedge2, %27
  tail call void @free(ptr noundef nonnull %16) #16
  ret void
}